target datalayout = "e-m:e-p270:32:32-p271:32:32-p272:64:64-i64:64-i128:128-f80:128-n8:16:32:64-S128"
target triple = "x86_64-pc-linux-gnu"

%"class.testing::internal::linked_ptr_internal" = type { ptr }
%"class.testing::internal::ParamGenerator.64" = type { %"class.testing::internal::linked_ptr.65" }
%"class.testing::internal::linked_ptr.65" = type { ptr, %"class.testing::internal::linked_ptr_internal" }
%"class.testing::internal::CartesianProductHolder2.151" = type { %"class.testing::internal::ValueArray5", %"class.testing::internal::ValueArray3" }
%"class.testing::internal::ValueArray5" = type { %"struct.opencv_test::Aruco3Params", %"struct.opencv_test::Aruco3Params", %"struct.opencv_test::Aruco3Params", %"struct.opencv_test::Aruco3Params", %"struct.opencv_test::Aruco3Params" }
%"struct.opencv_test::Aruco3Params" = type { i8, float, i32 }
%"class.testing::internal::ValueArray3" = type { %"struct.std::pair.70", %"struct.std::pair.70", %"struct.std::pair.70" }
%"struct.std::pair.70" = type { i32, i32 }

; Function Attrs: mustprogress nounwind uwtable
define linkonce_odr hidden void @_ZN7testing8internal11ValueArray3ISt4pairIiiES3_S3_EC2ERKS4_(ptr noundef nonnull align 4 dereferenceable(24) %0, ptr noundef nonnull align 4 dereferenceable(24) %1) unnamed_addr #4 comdat align 2 {
  %3 = alloca ptr, align 8
  %4 = alloca ptr, align 8
  store ptr %0, ptr %3, align 8
  store ptr %1, ptr %4, align 8
  %5 = load ptr, ptr %3, align 8
  %6 = getelementptr inbounds %"class.testing::internal::ValueArray3", ptr %5, i32 0, i32 0
  %7 = load ptr, ptr %4, align 8
  %8 = getelementptr inbounds %"class.testing::internal::ValueArray3", ptr %7, i32 0, i32 0
  call void @llvm.memcpy.p0.p0.i64(ptr align 4 %6, ptr align 4 %8, i64 8, i1 false)
  %9 = getelementptr inbounds %"class.testing::internal::ValueArray3", ptr %5, i32 0, i32 1
  %10 = load ptr, ptr %4, align 8
  %11 = getelementptr inbounds %"class.testing::internal::ValueArray3", ptr %10, i32 0, i32 1
  call void @llvm.memcpy.p0.p0.i64(ptr align 4 %9, ptr align 4 %11, i64 8, i1 false)
  %12 = getelementptr inbounds %"class.testing::internal::ValueArray3", ptr %5, i32 0, i32 2
  %13 = load ptr, ptr %4, align 8
  %14 = getelementptr inbounds %"class.testing::internal::ValueArray3", ptr %13, i32 0, i32 2
  call void @llvm.memcpy.p0.p0.i64(ptr align 4 %12, ptr align 4 %14, i64 8, i1 false)
  ret void
}

; Function Attrs: mustprogress nounwind uwtable
define linkonce_odr hidden void @_ZN7testing8internal11ValueArray5IN11opencv_test12Aruco3ParamsES3_S3_S3_S3_EC2ERKS4_(ptr noundef nonnull align 4 dereferenceable(60) %0, ptr noundef nonnull align 4 dereferenceable(60) %1) unnamed_addr #4 comdat align 2 {
  %3 = alloca ptr, align 8
  %4 = alloca ptr, align 8
  store ptr %0, ptr %3, align 8
  store ptr %1, ptr %4, align 8
  %5 = load ptr, ptr %3, align 8
  %6 = getelementptr inbounds %"class.testing::internal::ValueArray5", ptr %5, i32 0, i32 0
  %7 = load ptr, ptr %4, align 8
  %8 = getelementptr inbounds %"class.testing::internal::ValueArray5", ptr %7, i32 0, i32 0
  call void @llvm.memcpy.p0.p0.i64(ptr align 4 %6, ptr align 4 %8, i64 12, i1 false)
  %9 = getelementptr inbounds %"class.testing::internal::ValueArray5", ptr %5, i32 0, i32 1
  %10 = load ptr, ptr %4, align 8
  %11 = getelementptr inbounds %"class.testing::internal::ValueArray5", ptr %10, i32 0, i32 1
  call void @llvm.memcpy.p0.p0.i64(ptr align 4 %9, ptr align 4 %11, i64 12, i1 false)
  %12 = getelementptr inbounds %"class.testing::internal::ValueArray5", ptr %5, i32 0, i32 2
  %13 = load ptr, ptr %4, align 8
  %14 = getelementptr inbounds %"class.testing::internal::ValueArray5", ptr %13, i32 0, i32 2
  call void @llvm.memcpy.p0.p0.i64(ptr align 4 %12, ptr align 4 %14, i64 12, i1 false)
  %15 = getelementptr inbounds %"class.testing::internal::ValueArray5", ptr %5, i32 0, i32 3
  %16 = load ptr, ptr %4, align 8
  %17 = getelementptr inbounds %"class.testing::internal::ValueArray5", ptr %16, i32 0, i32 3
  call void @llvm.memcpy.p0.p0.i64(ptr align 4 %15, ptr align 4 %17, i64 12, i1 false)
  %18 = getelementptr inbounds %"class.testing::internal::ValueArray5", ptr %5, i32 0, i32 4
  %19 = load ptr, ptr %4, align 8
  %20 = getelementptr inbounds %"class.testing::internal::ValueArray5", ptr %19, i32 0, i32 4
  call void @llvm.memcpy.p0.p0.i64(ptr align 4 %18, ptr align 4 %20, i64 12, i1 false)
  ret void
}

; Function Attrs: mustprogress uwtable
define linkonce_odr hidden void @_ZN7testing8internal23CartesianProductHolder2INS0_11ValueArray5IN11opencv_test12Aruco3ParamsES4_S4_S4_S4_EENS0_11ValueArray3ISt4pairIiiES8_S8_EEEC2ERKS5_RKS9_(ptr noundef nonnull align 4 dereferenceable(84) %0, ptr noundef nonnull align 4 dereferenceable(60) %1, ptr noundef nonnull align 4 dereferenceable(24) %2) unnamed_addr #5 comdat align 2 {
  %4 = alloca ptr, align 8
  %5 = alloca ptr, align 8
  %6 = alloca ptr, align 8
  store ptr %0, ptr %4, align 8
  store ptr %1, ptr %5, align 8
  store ptr %2, ptr %6, align 8
  %7 = load ptr, ptr %4, align 8
  %8 = getelementptr inbounds %"class.testing::internal::CartesianProductHolder2.151", ptr %7, i32 0, i32 0
  %9 = load ptr, ptr %5, align 8
  call void @_ZN7testing8internal11ValueArray5IN11opencv_test12Aruco3ParamsES3_S3_S3_S3_EC2ERKS4_(ptr noundef nonnull align 4 dereferenceable(60) %8, ptr noundef nonnull align 4 dereferenceable(60) %9)
  %10 = getelementptr inbounds %"class.testing::internal::CartesianProductHolder2.151", ptr %7, i32 0, i32 1
  %11 = load ptr, ptr %6, align 8
  call void @_ZN7testing8internal11ValueArray3ISt4pairIiiES3_S3_EC2ERKS4_(ptr noundef nonnull align 4 dereferenceable(24) %10, ptr noundef nonnull align 4 dereferenceable(24) %11)
  ret void
}

; Function Attrs: mustprogress nounwind uwtable
define linkonce_odr hidden void @_ZN7testing8internal11ValueArray3ISt4pairIiiES3_S3_EC2ES3_S3_S3_(ptr noundef nonnull align 4 dereferenceable(24) %0, i64 %1, i64 %2, i64 %3) unnamed_addr #4 comdat align 2 {
  %5 = alloca %"struct.std::pair.70", align 4
  %6 = alloca %"struct.std::pair.70", align 4
  %7 = alloca %"struct.std::pair.70", align 4
  %8 = alloca ptr, align 8
  store i64 %1, ptr %5, align 4
  store i64 %2, ptr %6, align 4
  store i64 %3, ptr %7, align 4
  store ptr %0, ptr %8, align 8
  %9 = load ptr, ptr %8, align 8
  %10 = getelementptr inbounds %"class.testing::internal::ValueArray3", ptr %9, i32 0, i32 0
  call void @llvm.memcpy.p0.p0.i64(ptr align 4 %10, ptr align 4 %5, i64 8, i1 false)
  %11 = getelementptr inbounds %"class.testing::internal::ValueArray3", ptr %9, i32 0, i32 1
  call void @llvm.memcpy.p0.p0.i64(ptr align 4 %11, ptr align 4 %6, i64 8, i1 false)
  %12 = getelementptr inbounds %"class.testing::internal::ValueArray3", ptr %9, i32 0, i32 2
  call void @llvm.memcpy.p0.p0.i64(ptr align 4 %12, ptr align 4 %7, i64 8, i1 false)
  ret void
}

; Function Attrs: mustprogress nounwind uwtable
define linkonce_odr hidden void @_ZNSt4pairIiiEC2IiiTnNSt9enable_ifIXaaclsr5_PCCPE22_MoveConstructiblePairIT_T0_EEclsr5_PCCPE30_ImplicitlyMoveConvertiblePairIS3_S4_EEEbE4typeELb1EEEOS3_OS4_(ptr noundef nonnull align 4 dereferenceable(8) %0, ptr noundef nonnull align 4 dereferenceable(4) %1, ptr noundef nonnull align 4 dereferenceable(4) %2) unnamed_addr #4 comdat align 2 {
  %4 = alloca ptr, align 8
  %5 = alloca ptr, align 8
  %6 = alloca ptr, align 8
  store ptr %0, ptr %4, align 8
  store ptr %1, ptr %5, align 8
  store ptr %2, ptr %6, align 8
  %7 = load ptr, ptr %4, align 8
  %8 = getelementptr inbounds %"struct.std::pair.70", ptr %7, i32 0, i32 0
  %9 = load ptr, ptr %5, align 8
  %10 = load i32, ptr %9, align 4
  store i32 %10, ptr %8, align 4
  %11 = getelementptr inbounds %"struct.std::pair.70", ptr %7, i32 0, i32 1
  %12 = load ptr, ptr %6, align 8
  %13 = load i32, ptr %12, align 4
  store i32 %13, ptr %11, align 4
  ret void
}

; Function Attrs: mustprogress nounwind uwtable
define linkonce_odr hidden void @_ZN7testing8internal11ValueArray5IN11opencv_test12Aruco3ParamsES3_S3_S3_S3_EC2ES3_S3_S3_S3_S3_(ptr noundef nonnull align 4 dereferenceable(60) %0, i64 %1, i32 %2, i64 %3, i32 %4, ptr noundef byval(%"struct.opencv_test::Aruco3Params") align 8 %5, ptr noundef byval(%"struct.opencv_test::Aruco3Params") align 8 %6, ptr noundef byval(%"struct.opencv_test::Aruco3Params") align 8 %7) unnamed_addr #4 comdat align 2 {
  %9 = alloca %"struct.opencv_test::Aruco3Params", align 4
  %10 = alloca { i64, i32 }, align 4
  %11 = alloca %"struct.opencv_test::Aruco3Params", align 4
  %12 = alloca { i64, i32 }, align 4
  %13 = alloca ptr, align 8
  %14 = getelementptr inbounds { i64, i32 }, ptr %10, i32 0, i32 0
  store i64 %1, ptr %14, align 4
  %15 = getelementptr inbounds { i64, i32 }, ptr %10, i32 0, i32 1
  store i32 %2, ptr %15, align 4
  call void @llvm.memcpy.p0.p0.i64(ptr align 4 %9, ptr align 4 %10, i64 12, i1 false)
  %16 = getelementptr inbounds { i64, i32 }, ptr %12, i32 0, i32 0
  store i64 %3, ptr %16, align 4
  %17 = getelementptr inbounds { i64, i32 }, ptr %12, i32 0, i32 1
  store i32 %4, ptr %17, align 4
  call void @llvm.memcpy.p0.p0.i64(ptr align 4 %11, ptr align 4 %12, i64 12, i1 false)
  store ptr %0, ptr %13, align 8
  %18 = load ptr, ptr %13, align 8
  %19 = getelementptr inbounds %"class.testing::internal::ValueArray5", ptr %18, i32 0, i32 0
  call void @llvm.memcpy.p0.p0.i64(ptr align 4 %19, ptr align 4 %9, i64 12, i1 false)
  %20 = getelementptr inbounds %"class.testing::internal::ValueArray5", ptr %18, i32 0, i32 1
  call void @llvm.memcpy.p0.p0.i64(ptr align 4 %20, ptr align 4 %11, i64 12, i1 false)
  %21 = getelementptr inbounds %"class.testing::internal::ValueArray5", ptr %18, i32 0, i32 2
  call void @llvm.memcpy.p0.p0.i64(ptr align 4 %21, ptr align 8 %5, i64 12, i1 false)
  %22 = getelementptr inbounds %"class.testing::internal::ValueArray5", ptr %18, i32 0, i32 3
  call void @llvm.memcpy.p0.p0.i64(ptr align 4 %22, ptr align 8 %6, i64 12, i1 false)
  %23 = getelementptr inbounds %"class.testing::internal::ValueArray5", ptr %18, i32 0, i32 4
  call void @llvm.memcpy.p0.p0.i64(ptr align 4 %23, ptr align 8 %7, i64 12, i1 false)
  ret void
}

; Function Attrs: mustprogress uwtable
define linkonce_odr hidden void @_ZN7testing7CombineINS_8internal11ValueArray5IN11opencv_test12Aruco3ParamsES4_S4_S4_S4_EENS1_11ValueArray3ISt4pairIiiES8_S8_EEEENS1_23CartesianProductHolder2IT_T0_EERKSB_RKSC_(ptr dead_on_unwind noalias writable sret(%"class.testing::internal::CartesianProductHolder2.151") align 4 %0, ptr noundef nonnull align 4 dereferenceable(60) %1, ptr noundef nonnull align 4 dereferenceable(24) %2) #5 comdat {
  %4 = alloca ptr, align 8
  %5 = alloca ptr, align 8
  %6 = alloca ptr, align 8
  store ptr %0, ptr %4, align 8
  store ptr %1, ptr %5, align 8
  store ptr %2, ptr %6, align 8
  %7 = load ptr, ptr %5, align 8
  %8 = load ptr, ptr %6, align 8
  call void @_ZN7testing8internal23CartesianProductHolder2INS0_11ValueArray5IN11opencv_test12Aruco3ParamsES4_S4_S4_S4_EENS0_11ValueArray3ISt4pairIiiES8_S8_EEEC2ERKS5_RKS9_(ptr noundef nonnull align 4 dereferenceable(84) %0, ptr noundef nonnull align 4 dereferenceable(60) %7, ptr noundef nonnull align 4 dereferenceable(24) %8)
  ret void
}

; Function Attrs: mustprogress uwtable
define linkonce_odr hidden void @_ZN7testing6ValuesISt4pairIiiES2_S2_EENS_8internal11ValueArray3IT_T0_T1_EES5_S6_S7_(ptr dead_on_unwind noalias writable sret(%"class.testing::internal::ValueArray3") align 4 %0, i64 %1, i64 %2, i64 %3) #5 comdat {
  %5 = alloca ptr, align 8
  %6 = alloca %"struct.std::pair.70", align 4
  %7 = alloca %"struct.std::pair.70", align 4
  %8 = alloca %"struct.std::pair.70", align 4
  %9 = alloca %"struct.std::pair.70", align 4
  %10 = alloca %"struct.std::pair.70", align 4
  %11 = alloca %"struct.std::pair.70", align 4
  store ptr %0, ptr %5, align 8
  store i64 %1, ptr %6, align 4
  store i64 %2, ptr %7, align 4
  store i64 %3, ptr %8, align 4
  call void @llvm.memcpy.p0.p0.i64(ptr align 4 %9, ptr align 4 %6, i64 8, i1 false)
  call void @llvm.memcpy.p0.p0.i64(ptr align 4 %10, ptr align 4 %7, i64 8, i1 false)
  call void @llvm.memcpy.p0.p0.i64(ptr align 4 %11, ptr align 4 %8, i64 8, i1 false)
  %12 = load i64, ptr %9, align 4
  %13 = load i64, ptr %10, align 4
  %14 = load i64, ptr %11, align 4
  call void @_ZN7testing8internal11ValueArray3ISt4pairIiiES3_S3_EC2ES3_S3_S3_(ptr noundef nonnull align 4 dereferenceable(24) %0, i64 %12, i64 %13, i64 %14)
  ret void
}

; Function Attrs: mustprogress uwtable
define linkonce_odr dso_local i64 @_ZSt9make_pairIiiESt4pairINSt25__strip_reference_wrapperINSt5decayIT_E4typeEE6__typeENS1_INS2_IT0_E4typeEE6__typeEEOS3_OS8_(ptr noundef nonnull align 4 dereferenceable(4) %0, ptr noundef nonnull align 4 dereferenceable(4) %1) #5 comdat {
  %3 = alloca %"struct.std::pair.70", align 4
  %4 = alloca ptr, align 8
  %5 = alloca ptr, align 8
  store ptr %0, ptr %4, align 8
  store ptr %1, ptr %5, align 8
  %6 = load ptr, ptr %4, align 8
  %7 = load ptr, ptr %5, align 8
  call void @_ZNSt4pairIiiEC2IiiTnNSt9enable_ifIXaaclsr5_PCCPE22_MoveConstructiblePairIT_T0_EEclsr5_PCCPE30_ImplicitlyMoveConvertiblePairIS3_S4_EEEbE4typeELb1EEEOS3_OS4_(ptr noundef nonnull align 4 dereferenceable(8) %3, ptr noundef nonnull align 4 dereferenceable(4) %6, ptr noundef nonnull align 4 dereferenceable(4) %7)
  %8 = load i64, ptr %3, align 4
  ret i64 %8
}

; Function Attrs: mustprogress uwtable
define linkonce_odr hidden void @_ZN7testing6ValuesIN11opencv_test12Aruco3ParamsES2_S2_S2_S2_EENS_8internal11ValueArray5IT_T0_T1_T2_T3_EES5_S6_S7_S8_S9_(ptr dead_on_unwind noalias writable sret(%"class.testing::internal::ValueArray5") align 4 %0, i64 %1, i32 %2, i64 %3, i32 %4, ptr noundef byval(%"struct.opencv_test::Aruco3Params") align 8 %5, ptr noundef byval(%"struct.opencv_test::Aruco3Params") align 8 %6, ptr noundef byval(%"struct.opencv_test::Aruco3Params") align 8 %7) #5 comdat {
  %9 = alloca ptr, align 8
  %10 = alloca %"struct.opencv_test::Aruco3Params", align 4
  %11 = alloca { i64, i32 }, align 4
  %12 = alloca %"struct.opencv_test::Aruco3Params", align 4
  %13 = alloca { i64, i32 }, align 4
  %14 = alloca %"struct.opencv_test::Aruco3Params", align 4
  %15 = alloca %"struct.opencv_test::Aruco3Params", align 4
  %16 = alloca %"struct.opencv_test::Aruco3Params", align 8
  %17 = alloca %"struct.opencv_test::Aruco3Params", align 8
  %18 = alloca %"struct.opencv_test::Aruco3Params", align 8
  %19 = alloca { i64, i32 }, align 4
  %20 = alloca { i64, i32 }, align 4
  store ptr %0, ptr %9, align 8
  %21 = getelementptr inbounds { i64, i32 }, ptr %11, i32 0, i32 0
  store i64 %1, ptr %21, align 4
  %22 = getelementptr inbounds { i64, i32 }, ptr %11, i32 0, i32 1
  store i32 %2, ptr %22, align 4
  call void @llvm.memcpy.p0.p0.i64(ptr align 4 %10, ptr align 4 %11, i64 12, i1 false)
  %23 = getelementptr inbounds { i64, i32 }, ptr %13, i32 0, i32 0
  store i64 %3, ptr %23, align 4
  %24 = getelementptr inbounds { i64, i32 }, ptr %13, i32 0, i32 1
  store i32 %4, ptr %24, align 4
  call void @llvm.memcpy.p0.p0.i64(ptr align 4 %12, ptr align 4 %13, i64 12, i1 false)
  call void @llvm.memcpy.p0.p0.i64(ptr align 4 %14, ptr align 4 %10, i64 12, i1 false)
  call void @llvm.memcpy.p0.p0.i64(ptr align 4 %15, ptr align 4 %12, i64 12, i1 false)
  call void @llvm.memcpy.p0.p0.i64(ptr align 4 %16, ptr align 8 %5, i64 12, i1 false)
  call void @llvm.memcpy.p0.p0.i64(ptr align 4 %17, ptr align 8 %6, i64 12, i1 false)
  call void @llvm.memcpy.p0.p0.i64(ptr align 4 %18, ptr align 8 %7, i64 12, i1 false)
  call void @llvm.memcpy.p0.p0.i64(ptr align 4 %19, ptr align 4 %14, i64 12, i1 false)
  %25 = getelementptr inbounds { i64, i32 }, ptr %19, i32 0, i32 0
  %26 = load i64, ptr %25, align 4
  %27 = getelementptr inbounds { i64, i32 }, ptr %19, i32 0, i32 1
  %28 = load i32, ptr %27, align 4
  call void @llvm.memcpy.p0.p0.i64(ptr align 4 %20, ptr align 4 %15, i64 12, i1 false)
  %29 = getelementptr inbounds { i64, i32 }, ptr %20, i32 0, i32 0
  %30 = load i64, ptr %29, align 4
  %31 = getelementptr inbounds { i64, i32 }, ptr %20, i32 0, i32 1
  %32 = load i32, ptr %31, align 4
  call void @_ZN7testing8internal11ValueArray5IN11opencv_test12Aruco3ParamsES3_S3_S3_S3_EC2ES3_S3_S3_S3_S3_(ptr noundef nonnull align 4 dereferenceable(60) %0, i64 %26, i32 %28, i64 %30, i32 %32, ptr noundef byval(%"struct.opencv_test::Aruco3Params") align 8 %16, ptr noundef byval(%"struct.opencv_test::Aruco3Params") align 8 %17, ptr noundef byval(%"struct.opencv_test::Aruco3Params") align 8 %18)
  ret void
}

; Function Attrs: mustprogress nounwind uwtable
define linkonce_odr hidden void @_ZN11opencv_test12Aruco3ParamsC2Ebfi(ptr noundef nonnull align 4 dereferenceable(12) %0, i1 noundef zeroext %1, float noundef %2, i32 noundef %3) unnamed_addr #4 comdat align 2 {
  %5 = alloca ptr, align 8
  %6 = alloca i8, align 1
  %7 = alloca float, align 4
  %8 = alloca i32, align 4
  store ptr %0, ptr %5, align 8
  %9 = zext i1 %1 to i8
  store i8 %9, ptr %6, align 1
  store float %2, ptr %7, align 4
  store i32 %3, ptr %8, align 4
  %10 = load ptr, ptr %5, align 8
  %11 = getelementptr inbounds %"struct.opencv_test::Aruco3Params", ptr %10, i32 0, i32 0
  %12 = load i8, ptr %6, align 1
  %13 = trunc i8 %12 to i1
  %14 = zext i1 %13 to i8
  store i8 %14, ptr %11, align 4
  %15 = getelementptr inbounds %"struct.opencv_test::Aruco3Params", ptr %10, i32 0, i32 1
  %16 = load float, ptr %7, align 4
  store float %16, ptr %15, align 4
  %17 = getelementptr inbounds %"struct.opencv_test::Aruco3Params", ptr %10, i32 0, i32 2
  %18 = load i32, ptr %8, align 4
  store i32 %18, ptr %17, align 4
  ret void
}

; Function Attrs: mustprogress uwtable
define internal void @_ZN11opencv_testL48gtest_EstimateLargeAruco_ArucoFHD_EvalGenerator_Ev(ptr dead_on_unwind noalias writable sret(%"class.testing::internal::ParamGenerator.64") align 8 %0) #5 {
  %2 = alloca ptr, align 8
  %3 = alloca %"class.testing::internal::CartesianProductHolder2.151", align 4
  %4 = alloca %"class.testing::internal::ValueArray5", align 4
  %5 = alloca %"struct.opencv_test::Aruco3Params", align 4
  %6 = alloca %"struct.opencv_test::Aruco3Params", align 4
  %7 = alloca %"struct.opencv_test::Aruco3Params", align 8
  %8 = alloca %"struct.opencv_test::Aruco3Params", align 8
  %9 = alloca %"struct.opencv_test::Aruco3Params", align 8
  %10 = alloca { i64, i32 }, align 4
  %11 = alloca { i64, i32 }, align 4
  %12 = alloca %"class.testing::internal::ValueArray3", align 4
  %13 = alloca %"struct.std::pair.70", align 4
  %14 = alloca i32, align 4
  %15 = alloca i32, align 4
  %16 = alloca %"struct.std::pair.70", align 4
  %17 = alloca i32, align 4
  %18 = alloca i32, align 4
  %19 = alloca %"struct.std::pair.70", align 4
  %20 = alloca i32, align 4
  %21 = alloca i32, align 4
  store ptr %0, ptr %2, align 8
  call void @_ZN11opencv_test12Aruco3ParamsC2Ebfi(ptr noundef nonnull align 4 dereferenceable(12) %5, i1 noundef zeroext false, float noundef 0.000000e+00, i32 noundef 0)
  call void @_ZN11opencv_test12Aruco3ParamsC2Ebfi(ptr noundef nonnull align 4 dereferenceable(12) %6, i1 noundef zeroext true, float noundef 0.000000e+00, i32 noundef 32)
  call void @_ZN11opencv_test12Aruco3ParamsC2Ebfi(ptr noundef nonnull align 4 dereferenceable(12) %7, i1 noundef zeroext true, float noundef 0x3F8EB851E0000000, i32 noundef 32)
  call void @_ZN11opencv_test12Aruco3ParamsC2Ebfi(ptr noundef nonnull align 4 dereferenceable(12) %8, i1 noundef zeroext true, float noundef 0.000000e+00, i32 noundef 16)
  call void @_ZN11opencv_test12Aruco3ParamsC2Ebfi(ptr noundef nonnull align 4 dereferenceable(12) %9, i1 noundef zeroext true, float noundef 0x3F7C432CA0000000, i32 noundef 16)
  call void @llvm.memcpy.p0.p0.i64(ptr align 4 %10, ptr align 4 %5, i64 12, i1 false)
  %22 = getelementptr inbounds { i64, i32 }, ptr %10, i32 0, i32 0
  %23 = load i64, ptr %22, align 4
  %24 = getelementptr inbounds { i64, i32 }, ptr %10, i32 0, i32 1
  %25 = load i32, ptr %24, align 4
  call void @llvm.memcpy.p0.p0.i64(ptr align 4 %11, ptr align 4 %6, i64 12, i1 false)
  %26 = getelementptr inbounds { i64, i32 }, ptr %11, i32 0, i32 0
  %27 = load i64, ptr %26, align 4
  %28 = getelementptr inbounds { i64, i32 }, ptr %11, i32 0, i32 1
  %29 = load i32, ptr %28, align 4
  call void @_ZN7testing6ValuesIN11opencv_test12Aruco3ParamsES2_S2_S2_S2_EENS_8internal11ValueArray5IT_T0_T1_T2_T3_EES5_S6_S7_S8_S9_(ptr dead_on_unwind writable sret(%"class.testing::internal::ValueArray5") align 4 %4, i64 %23, i32 %25, i64 %27, i32 %29, ptr noundef byval(%"struct.opencv_test::Aruco3Params") align 8 %7, ptr noundef byval(%"struct.opencv_test::Aruco3Params") align 8 %8, ptr noundef byval(%"struct.opencv_test::Aruco3Params") align 8 %9)
  store i32 1440, ptr %14, align 4
  store i32 1, ptr %15, align 4
  %30 = call i64 @_ZSt9make_pairIiiESt4pairINSt25__strip_reference_wrapperINSt5decayIT_E4typeEE6__typeENS1_INS2_IT0_E4typeEE6__typeEEOS3_OS8_(ptr noundef nonnull align 4 dereferenceable(4) %14, ptr noundef nonnull align 4 dereferenceable(4) %15)
  store i64 %30, ptr %13, align 4
  store i32 480, ptr %17, align 4
  store i32 3, ptr %18, align 4
  %31 = call i64 @_ZSt9make_pairIiiESt4pairINSt25__strip_reference_wrapperINSt5decayIT_E4typeEE6__typeENS1_INS2_IT0_E4typeEE6__typeEEOS3_OS8_(ptr noundef nonnull align 4 dereferenceable(4) %17, ptr noundef nonnull align 4 dereferenceable(4) %18)
  store i64 %31, ptr %16, align 4
  store i32 144, ptr %20, align 4
  store i32 10, ptr %21, align 4
  %32 = call i64 @_ZSt9make_pairIiiESt4pairINSt25__strip_reference_wrapperINSt5decayIT_E4typeEE6__typeENS1_INS2_IT0_E4typeEE6__typeEEOS3_OS8_(ptr noundef nonnull align 4 dereferenceable(4) %20, ptr noundef nonnull align 4 dereferenceable(4) %21)
  store i64 %32, ptr %19, align 4
  %33 = load i64, ptr %13, align 4
  %34 = load i64, ptr %16, align 4
  %35 = load i64, ptr %19, align 4
  call void @_ZN7testing6ValuesISt4pairIiiES2_S2_EENS_8internal11ValueArray3IT_T0_T1_EES5_S6_S7_(ptr dead_on_unwind writable sret(%"class.testing::internal::ValueArray3") align 4 %12, i64 %33, i64 %34, i64 %35)
  call void @_ZN7testing7CombineINS_8internal11ValueArray5IN11opencv_test12Aruco3ParamsES4_S4_S4_S4_EENS1_11ValueArray3ISt4pairIiiES8_S8_EEEENS1_23CartesianProductHolder2IT_T0_EERKSB_RKSC_(ptr dead_on_unwind writable sret(%"class.testing::internal::CartesianProductHolder2.151") align 4 %3, ptr noundef nonnull align 4 dereferenceable(60) %4, ptr noundef nonnull align 4 dereferenceable(24) %12)
  call void @_ZNK7testing8internal23CartesianProductHolder2INS0_11ValueArray5IN11opencv_test12Aruco3ParamsES4_S4_S4_S4_EENS0_11ValueArray3ISt4pairIiiES8_S8_EEEcvNS0_14ParamGeneratorISt5tupleIJT_T0_EEEEIS4_S8_EEv(ptr dead_on_unwind writable sret(%"class.testing::internal::ParamGenerator.64") align 8 %0, ptr noundef nonnull align 4 dereferenceable(84) %3)
  ret void
}