; Function Attrs: mustprogress uwtable
define internal void @_ZN11opencv_testL48gtest_EstimateLargeAruco_ArucoFHD_EvalGenerator_Ev(ptr dead_on_unwind noalias writable sret(%"class.testing::internal::ParamGenerator.64") align 8 %0) #3 {
  %2 = alloca %"class.testing::internal::CartesianProductHolder2.151", align 16
  store <4 x i32> <i32 0, i32 0, i32 0, i32 1>, ptr %2, align 16
  %.sroa.6.12..sroa_idx = getelementptr inbounds i8, ptr %2, i64 16
  store i32 0, ptr %.sroa.6.12..sroa_idx, align 16
  %.sroa.7.12..sroa_idx = getelementptr inbounds i8, ptr %2, i64 20
  store i32 32, ptr %.sroa.7.12..sroa_idx, align 4
  %3 = getelementptr inbounds i8, ptr %2, i64 24
  store i8 1, ptr %3, align 8
  %.sroa.8.sroa.3.0..sroa_idx = getelementptr inbounds i8, ptr %2, i64 28
  store float 0x3F8EB851E0000000, ptr %.sroa.8.sroa.3.0..sroa_idx, align 4
  %.sroa.8.sroa.4.0..sroa_idx = getelementptr inbounds i8, ptr %2, i64 32
  store i32 32, ptr %.sroa.8.sroa.4.0..sroa_idx, align 16
  %4 = getelementptr inbounds i8, ptr %2, i64 36
  store i8 1, ptr %4, align 4
  %.sroa.10.sroa.3.0..sroa_idx = getelementptr inbounds i8, ptr %2, i64 40
  store float 0.000000e+00, ptr %.sroa.10.sroa.3.0..sroa_idx, align 8
  %.sroa.10.sroa.4.0..sroa_idx = getelementptr inbounds i8, ptr %2, i64 44
  store i32 16, ptr %.sroa.10.sroa.4.0..sroa_idx, align 4
  %5 = getelementptr inbounds i8, ptr %2, i64 48
  store i8 1, ptr %5, align 16
  %.sroa.12.sroa.3.0..sroa_idx = getelementptr inbounds i8, ptr %2, i64 52
  store float 0x3F7C432CA0000000, ptr %.sroa.12.sroa.3.0..sroa_idx, align 4
  %.sroa.12.sroa.4.0..sroa_idx = getelementptr inbounds i8, ptr %2, i64 56
  store i32 16, ptr %.sroa.12.sroa.4.0..sroa_idx, align 8
  %6 = getelementptr inbounds i8, ptr %2, i64 60
  store i64 4294968736, ptr %6, align 4, !alias.scope !36
  %7 = getelementptr inbounds i8, ptr %2, i64 68
  store i64 12884902368, ptr %7, align 4, !alias.scope !36
  %8 = getelementptr inbounds i8, ptr %2, i64 76
  store i64 42949673104, ptr %8, align 4, !alias.scope !36
  call void @_ZNK7testing8internal23CartesianProductHolder2INS0_11ValueArray5IN11opencv_test12Aruco3ParamsES4_S4_S4_S4_EENS0_11ValueArray3ISt4pairIiiES8_S8_EEEcvNS0_14ParamGeneratorISt5tupleIJT_T0_EEEEIS4_S8_EEv(ptr dead_on_unwind writable sret(%"class.testing::internal::ParamGenerator.64") align 8 %0, ptr noundef nonnull align 4 dereferenceable(84) %2)
  ret void
}